; Function Attrs: mustprogress uwtable
define void @_ZNK6casadi2MX7eval_mxERKSt6vectorIS0_SaIS0_EERS3_(ptr noundef nonnull align 8 dereferenceable(8) %0, ptr noundef nonnull align 8 dereferenceable(24) %1, ptr noundef nonnull align 8 dereferenceable(24) %2) local_unnamed_addr #3 align 2 personality ptr @__gxx_personality_v0 {
  %4 = alloca %"class.std::__cxx11::basic_string", align 8
  %5 = alloca %"class.std::__cxx11::basic_string", align 8
  %6 = alloca %"class.std::__cxx11::basic_string", align 8
  %7 = alloca %"class.std::__cxx11::basic_string", align 8
  %8 = alloca %"class.std::__cxx11::basic_string", align 8
  %9 = alloca %"class.std::__cxx11::basic_string", align 8
  %10 = alloca %"class.std::__cxx11::basic_string", align 8
  %11 = alloca %"class.std::__cxx11::basic_string", align 8
  %12 = alloca %"class.std::allocator", align 1
  %13 = alloca %"class.std::__cxx11::basic_string", align 8
  %14 = alloca %"class.std::allocator", align 1
  %15 = invoke noundef ptr @_ZNK6casadi12SharedObjectptEv(ptr noundef nonnull align 8 dereferenceable(8) %0)
          to label %_ZNK6casadi2MXptEv.exit unwind label %19

_ZNK6casadi2MXptEv.exit:                          ; preds = %3
  %16 = load ptr, ptr %15, align 8
  %17 = getelementptr inbounds i8, ptr %16, i64 160
  %18 = load ptr, ptr %17, align 8
  invoke void %18(ptr noundef nonnull align 8 dereferenceable(64) %15, ptr noundef nonnull align 8 dereferenceable(24) %1, ptr noundef nonnull align 8 dereferenceable(24) %2)
          to label %72 unwind label %19

19:                                               ; preds = %3, %_ZNK6casadi2MXptEv.exit
  %20 = landingpad { ptr, i32 }
          catch ptr @_ZTISt9exception
  %21 = extractvalue { ptr, i32 } %20, 1
  %22 = tail call i32 @llvm.eh.typeid.for(ptr nonnull @_ZTISt9exception) #27
  %23 = icmp eq i32 %21, %22
  br i1 %23, label %24, label %73

24:                                               ; preds = %19
  %25 = extractvalue { ptr, i32 } %20, 0
  %26 = tail call ptr @__cxa_begin_catch(ptr %25) #27
  %27 = tail call ptr @__cxa_allocate_exception(i64 40) #27
  invoke void @_ZNK6casadi12SharedObject10class_nameB5cxx11Ev(ptr dead_on_unwind nonnull writable sret(%"class.std::__cxx11::basic_string") align 8 %9, ptr noundef nonnull align 8 dereferenceable(8) %0)
          to label %28 unwind label %.thread

28:                                               ; preds = %24
  %29 = invoke noundef nonnull align 8 dereferenceable(32) ptr @_ZNSt7__cxx1112basic_stringIcSt11char_traitsIcESaIcEE6insertEmPKc(ptr noundef nonnull align 8 dereferenceable(32) %9, i64 noundef 0, ptr noundef nonnull @.str.392)
          to label %30 unwind label %.thread43

30:                                               ; preds = %28
  call void @_ZNSt7__cxx1112basic_stringIcSt11char_traitsIcESaIcEEC1EOS4_(ptr noundef nonnull align 8 dereferenceable(32) %8, ptr noundef nonnull align 8 dereferenceable(32) %29) #27
  %31 = invoke noundef nonnull align 8 dereferenceable(32) ptr @_ZNSt7__cxx1112basic_stringIcSt11char_traitsIcESaIcEE6appendEPKc(ptr noundef nonnull align 8 dereferenceable(32) %8, ptr noundef nonnull @.str.393)
          to label %32 unwind label %47

32:                                               ; preds = %30
  call void @_ZNSt7__cxx1112basic_stringIcSt11char_traitsIcESaIcEEC1EOS4_(ptr noundef nonnull align 8 dereferenceable(32) %7, ptr noundef nonnull align 8 dereferenceable(32) %31) #27
  call void @_ZNSaIcEC1Ev(ptr noundef nonnull align 1 dereferenceable(1) %12) #27
  invoke void @_ZNSt7__cxx1112basic_stringIcSt11char_traitsIcESaIcEEC2IS3_EEPKcRKS3_(ptr noundef nonnull align 8 dereferenceable(32) %11, ptr noundef nonnull @.str.394, ptr noundef nonnull align 1 dereferenceable(1) %12)
          to label %33 unwind label %49

33:                                               ; preds = %32
  invoke void @_ZN6casadi9trim_pathERKNSt7__cxx1112basic_stringIcSt11char_traitsIcESaIcEEE(ptr dead_on_unwind nonnull writable sret(%"class.std::__cxx11::basic_string") align 8 %10, ptr noundef nonnull align 8 dereferenceable(32) %11)
          to label %34 unwind label %51

34:                                               ; preds = %33
  invoke void @_ZStplIcSt11char_traitsIcESaIcEENSt7__cxx1112basic_stringIT_T0_T1_EEOS8_S9_(ptr dead_on_unwind nonnull writable sret(%"class.std::__cxx11::basic_string") align 8 %6, ptr noundef nonnull align 8 dereferenceable(32) %7, ptr noundef nonnull align 8 dereferenceable(32) %10)
          to label %35 unwind label %53

35:                                               ; preds = %34
  %36 = invoke noundef nonnull align 8 dereferenceable(32) ptr @_ZNSt7__cxx1112basic_stringIcSt11char_traitsIcESaIcEE6appendEPKc(ptr noundef nonnull align 8 dereferenceable(32) %6, ptr noundef nonnull @.str.95)
          to label %37 unwind label %55

37:                                               ; preds = %35
  call void @_ZNSt7__cxx1112basic_stringIcSt11char_traitsIcESaIcEEC1EOS4_(ptr noundef nonnull align 8 dereferenceable(32) %5, ptr noundef nonnull align 8 dereferenceable(32) %36) #27
  %38 = load ptr, ptr %26, align 8
  %39 = getelementptr inbounds i8, ptr %38, i64 16
  %40 = load ptr, ptr %39, align 8
  %41 = call noundef ptr %40(ptr noundef nonnull align 8 dereferenceable(8) %26) #27
  call void @_ZNSaIcEC1Ev(ptr noundef nonnull align 1 dereferenceable(1) %14) #27
  invoke void @_ZNSt7__cxx1112basic_stringIcSt11char_traitsIcESaIcEEC2IS3_EEPKcRKS3_(ptr noundef nonnull align 8 dereferenceable(32) %13, ptr noundef %41, ptr noundef nonnull align 1 dereferenceable(1) %14)
          to label %42 unwind label %57

42:                                               ; preds = %37
  invoke void @_ZStplIcSt11char_traitsIcESaIcEENSt7__cxx1112basic_stringIT_T0_T1_EEOS8_S9_(ptr dead_on_unwind nonnull writable sret(%"class.std::__cxx11::basic_string") align 8 %4, ptr noundef nonnull align 8 dereferenceable(32) %5, ptr noundef nonnull align 8 dereferenceable(32) %13)
          to label %43 unwind label %59

43:                                               ; preds = %42
  invoke void @_ZN6casadi15CasadiExceptionC2ERKNSt7__cxx1112basic_stringIcSt11char_traitsIcESaIcEEE(ptr noundef nonnull align 8 dereferenceable(40) %27, ptr noundef nonnull align 8 dereferenceable(32) %4)
          to label %44 unwind label %61

44:                                               ; preds = %43
  invoke void @__cxa_throw(ptr nonnull %27, ptr nonnull @_ZTIN6casadi15CasadiExceptionE, ptr nonnull @_ZN6casadi15CasadiExceptionD2Ev) #28
          to label %77 unwind label %61

.thread:                                          ; preds = %24
  %45 = landingpad { ptr, i32 }
          cleanup
  br label %70

.thread43:                                        ; preds = %28
  %46 = landingpad { ptr, i32 }
          cleanup
  call void @_ZNSt7__cxx1112basic_stringIcSt11char_traitsIcESaIcEED1Ev(ptr noundef nonnull align 8 dereferenceable(32) %9) #27
  br label %70

47:                                               ; preds = %30
  %48 = landingpad { ptr, i32 }
          cleanup
  br label %69

49:                                               ; preds = %32
  %50 = landingpad { ptr, i32 }
          cleanup
  br label %68

51:                                               ; preds = %33
  %52 = landingpad { ptr, i32 }
          cleanup
  br label %67

53:                                               ; preds = %34
  %54 = landingpad { ptr, i32 }
          cleanup
  br label %66

55:                                               ; preds = %35
  %56 = landingpad { ptr, i32 }
          cleanup
  br label %65

57:                                               ; preds = %37
  %58 = landingpad { ptr, i32 }
          cleanup
  br label %64

59:                                               ; preds = %42
  %60 = landingpad { ptr, i32 }
          cleanup
  br label %63

61:                                               ; preds = %44, %43
  %.0 = phi i1 [ false, %44 ], [ true, %43 ]
  %62 = landingpad { ptr, i32 }
          cleanup
  call void @_ZNSt7__cxx1112basic_stringIcSt11char_traitsIcESaIcEED1Ev(ptr noundef nonnull align 8 dereferenceable(32) %4) #27
  br label %63

63:                                               ; preds = %61, %59
  %.pn = phi { ptr, i32 } [ %62, %61 ], [ %60, %59 ]
  %.1 = phi i1 [ %.0, %61 ], [ true, %59 ]
  call void @_ZNSt7__cxx1112basic_stringIcSt11char_traitsIcESaIcEED1Ev(ptr noundef nonnull align 8 dereferenceable(32) %13) #27
  br label %64

64:                                               ; preds = %63, %57
  %.pn.pn = phi { ptr, i32 } [ %.pn, %63 ], [ %58, %57 ]
  %.2 = phi i1 [ %.1, %63 ], [ true, %57 ]
  call void @_ZNSaIcED1Ev(ptr noundef nonnull align 1 dereferenceable(1) %14) #27
  call void @_ZNSt7__cxx1112basic_stringIcSt11char_traitsIcESaIcEED1Ev(ptr noundef nonnull align 8 dereferenceable(32) %5) #27
  br label %65

65:                                               ; preds = %64, %55
  %.pn.pn.pn = phi { ptr, i32 } [ %.pn.pn, %64 ], [ %56, %55 ]
  %.3 = phi i1 [ %.2, %64 ], [ true, %55 ]
  call void @_ZNSt7__cxx1112basic_stringIcSt11char_traitsIcESaIcEED1Ev(ptr noundef nonnull align 8 dereferenceable(32) %6) #27
  br label %66

66:                                               ; preds = %65, %53
  %.pn.pn.pn.pn = phi { ptr, i32 } [ %.pn.pn.pn, %65 ], [ %54, %53 ]
  %.4 = phi i1 [ %.3, %65 ], [ true, %53 ]
  call void @_ZNSt7__cxx1112basic_stringIcSt11char_traitsIcESaIcEED1Ev(ptr noundef nonnull align 8 dereferenceable(32) %10) #27
  br label %67

67:                                               ; preds = %66, %51
  %.pn.pn.pn.pn.pn = phi { ptr, i32 } [ %.pn.pn.pn.pn, %66 ], [ %52, %51 ]
  %.5 = phi i1 [ %.4, %66 ], [ true, %51 ]
  call void @_ZNSt7__cxx1112basic_stringIcSt11char_traitsIcESaIcEED1Ev(ptr noundef nonnull align 8 dereferenceable(32) %11) #27
  br label %68

68:                                               ; preds = %67, %49
  %.pn.pn.pn.pn.pn.pn = phi { ptr, i32 } [ %.pn.pn.pn.pn.pn, %67 ], [ %50, %49 ]
  %.6 = phi i1 [ %.5, %67 ], [ true, %49 ]
  call void @_ZNSaIcED1Ev(ptr noundef nonnull align 1 dereferenceable(1) %12) #27
  call void @_ZNSt7__cxx1112basic_stringIcSt11char_traitsIcESaIcEED1Ev(ptr noundef nonnull align 8 dereferenceable(32) %7) #27
  br label %69

69:                                               ; preds = %47, %68
  %.pn.pn.pn.pn.pn.pn.pn = phi { ptr, i32 } [ %.pn.pn.pn.pn.pn.pn, %68 ], [ %48, %47 ]
  %.7 = phi i1 [ %.6, %68 ], [ true, %47 ]
  call void @_ZNSt7__cxx1112basic_stringIcSt11char_traitsIcESaIcEED1Ev(ptr noundef nonnull align 8 dereferenceable(32) %8) #27
  call void @_ZNSt7__cxx1112basic_stringIcSt11char_traitsIcESaIcEED1Ev(ptr noundef nonnull align 8 dereferenceable(32) %9) #27
  br i1 %.7, label %70, label %71

70:                                               ; preds = %.thread43, %.thread, %69
  %.pn.pn.pn.pn.pn.pn.pn.pn.pn42 = phi { ptr, i32 } [ %45, %.thread ], [ %.pn.pn.pn.pn.pn.pn.pn, %69 ], [ %46, %.thread43 ]
  call void @__cxa_free_exception(ptr %27) #27
  br label %71

71:                                               ; preds = %70, %69
  %.pn.pn.pn.pn.pn.pn.pn.pn.pn41 = phi { ptr, i32 } [ %.pn.pn.pn.pn.pn.pn.pn.pn.pn42, %70 ], [ %.pn.pn.pn.pn.pn.pn.pn, %69 ]
  invoke void @__cxa_end_catch()
          to label %73 unwind label %74

72:                                               ; preds = %_ZNK6casadi2MXptEv.exit
  ret void

73:                                               ; preds = %71, %19
  %.merged = phi { ptr, i32 } [ %.pn.pn.pn.pn.pn.pn.pn.pn.pn41, %71 ], [ %20, %19 ]
  resume { ptr, i32 } %.merged

74:                                               ; preds = %71
  %75 = landingpad { ptr, i32 }
          catch ptr null
  %76 = extractvalue { ptr, i32 } %75, 0
  call void @__clang_call_terminate(ptr %76) #31
  unreachable

77:                                               ; preds = %44
  unreachable
}